target datalayout = "e-m:e-p270:32:32-p271:32:32-p272:64:64-i64:64-i128:128-f80:128-n8:16:32:64-S128"
target triple = "x86_64-pc-linux-gnu"

@hf_GIAS_DayEventTime_day_event = internal global i32 0, align 4
@hf_UCO_Time_hour = internal global i32 0, align 4
@hf_UCO_Time_minute = internal global i32 0, align 4
@hf_UCO_Time_second = internal global i32 0, align 4
@hf_GIAS_LifeEvent_LifeEvent = internal global i32 0, align 4
@hf_GIAS_LifeEvent_ev = internal global i32 0, align 4
@ett_giop_struct = internal global i32 0, align 4
@boundary = internal global i32 12, align 4
@.str.840 = private unnamed_addr constant [19 x i8] c"struct UCO_AbsTime\00", align 1
@.str.842 = private unnamed_addr constant [16 x i8] c"struct UCO_Time\00", align 1
@.str.872 = private unnamed_addr constant [25 x i8] c"struct GIAS_DayEventTime\00", align 1

; Function Attrs: null_pointer_is_valid sspstrong uwtable
define internal void @decode_UCO_Time_st(ptr noundef %0, ptr noundef %1, ptr noundef %2, ptr noundef %3, ptr noundef %4, ptr noundef %5, ptr noundef %6, i1 noundef zeroext %7) #0 {
  %9 = alloca ptr, align 8
  %10 = alloca ptr, align 8
  %11 = alloca ptr, align 8
  %12 = alloca ptr, align 8
  %13 = alloca ptr, align 8
  %14 = alloca ptr, align 8
  %15 = alloca ptr, align 8
  %16 = alloca i8, align 1
  store ptr %0, ptr %9, align 8
  store ptr %1, ptr %10, align 8
  store ptr %2, ptr %11, align 8
  store ptr %3, ptr %12, align 8
  store ptr %4, ptr %13, align 8
  store ptr %5, ptr %14, align 8
  store ptr %6, ptr %15, align 8
  %17 = zext i1 %7 to i8
  store i8 %17, ptr %16, align 1
  %18 = load ptr, ptr %11, align 8
  %19 = load i32, ptr @hf_UCO_Time_hour, align 4
  %20 = load ptr, ptr %9, align 8
  %21 = load ptr, ptr %13, align 8
  %22 = load i32, ptr %21, align 4
  %23 = sub i32 %22, 2
  %24 = load ptr, ptr %9, align 8
  %25 = load ptr, ptr %13, align 8
  %26 = load i8, ptr %16, align 1, !range !6, !noundef !7
  %27 = trunc i8 %26 to i1
  %28 = load i32, ptr @boundary, align 4
  %29 = call zeroext i16 @get_CDR_ushort(ptr noundef %24, ptr noundef %25, i1 noundef zeroext %27, i32 noundef %28)
  %30 = zext i16 %29 to i32
  %31 = call ptr @proto_tree_add_uint(ptr noundef %18, i32 noundef %19, ptr noundef %20, i32 noundef %23, i32 noundef 2, i32 noundef %30)
  %32 = load ptr, ptr %11, align 8
  %33 = load i32, ptr @hf_UCO_Time_minute, align 4
  %34 = load ptr, ptr %9, align 8
  %35 = load ptr, ptr %13, align 8
  %36 = load i32, ptr %35, align 4
  %37 = sub i32 %36, 2
  %38 = load ptr, ptr %9, align 8
  %39 = load ptr, ptr %13, align 8
  %40 = load i8, ptr %16, align 1, !range !6, !noundef !7
  %41 = trunc i8 %40 to i1
  %42 = load i32, ptr @boundary, align 4
  %43 = call zeroext i16 @get_CDR_ushort(ptr noundef %38, ptr noundef %39, i1 noundef zeroext %41, i32 noundef %42)
  %44 = zext i16 %43 to i32
  %45 = call ptr @proto_tree_add_uint(ptr noundef %32, i32 noundef %33, ptr noundef %34, i32 noundef %37, i32 noundef 2, i32 noundef %44)
  %46 = load ptr, ptr %11, align 8
  %47 = load i32, ptr @hf_UCO_Time_second, align 4
  %48 = load ptr, ptr %9, align 8
  %49 = load ptr, ptr %13, align 8
  %50 = load i32, ptr %49, align 4
  %51 = sub i32 %50, 4
  %52 = load ptr, ptr %9, align 8
  %53 = load ptr, ptr %13, align 8
  %54 = load i8, ptr %16, align 1, !range !6, !noundef !7
  %55 = trunc i8 %54 to i1
  %56 = load i32, ptr @boundary, align 4
  %57 = call float @get_CDR_float(ptr noundef %52, ptr noundef %53, i1 noundef zeroext %55, i32 noundef %56)
  %58 = call ptr @proto_tree_add_float(ptr noundef %46, i32 noundef %47, ptr noundef %48, i32 noundef %51, i32 noundef 4, float noundef %57)
  ret void
}

; Function Attrs: null_pointer_is_valid sspstrong uwtable
define internal void @decode_GIAS_DayEventTime_st(ptr noundef %0, ptr noundef %1, ptr noundef %2, ptr noundef %3, ptr noundef %4, ptr noundef %5, ptr noundef %6, i1 noundef zeroext %7) #0 {
  %9 = alloca ptr, align 8
  %10 = alloca ptr, align 8
  %11 = alloca ptr, align 8
  %12 = alloca ptr, align 8
  %13 = alloca ptr, align 8
  %14 = alloca ptr, align 8
  %15 = alloca ptr, align 8
  %16 = alloca i8, align 1
  %17 = alloca i32, align 4
  %18 = alloca ptr, align 8
  store ptr %0, ptr %9, align 8
  store ptr %1, ptr %10, align 8
  store ptr %2, ptr %11, align 8
  store ptr %3, ptr %12, align 8
  store ptr %4, ptr %13, align 8
  store ptr %5, ptr %14, align 8
  store ptr %6, ptr %15, align 8
  %19 = zext i1 %7 to i8
  store i8 %19, ptr %16, align 1
  call void @llvm.lifetime.start.p0(i64 4, ptr %17) #6
  %20 = load ptr, ptr %9, align 8
  %21 = load ptr, ptr %13, align 8
  %22 = load i8, ptr %16, align 1, !range !6, !noundef !7
  %23 = trunc i8 %22 to i1
  %24 = load i32, ptr @boundary, align 4
  %25 = call i32 @get_CDR_enum(ptr noundef %20, ptr noundef %21, i1 noundef zeroext %23, i32 noundef %24)
  store i32 %25, ptr %17, align 4
  %26 = load ptr, ptr %11, align 8
  %27 = load i32, ptr @hf_GIAS_DayEventTime_day_event, align 4
  %28 = load ptr, ptr %9, align 8
  %29 = load ptr, ptr %13, align 8
  %30 = load i32, ptr %29, align 4
  %31 = sub i32 %30, 4
  %32 = load i32, ptr %17, align 4
  %33 = call ptr @proto_tree_add_uint(ptr noundef %26, i32 noundef %27, ptr noundef %28, i32 noundef %31, i32 noundef 4, i32 noundef %32)
  call void @llvm.lifetime.start.p0(i64 8, ptr %18) #6
  %34 = load ptr, ptr %11, align 8
  %35 = load ptr, ptr %9, align 8
  %36 = load ptr, ptr %13, align 8
  %37 = load i32, ptr %36, align 4
  %38 = load i32, ptr @ett_giop_struct, align 4
  %39 = call ptr @proto_tree_add_subtree(ptr noundef %34, ptr noundef %35, i32 noundef %37, i32 noundef -1, i32 noundef %38, ptr noundef null, ptr noundef @.str.842)
  store ptr %39, ptr %18, align 8
  %40 = load ptr, ptr %9, align 8
  %41 = load ptr, ptr %10, align 8
  %42 = load ptr, ptr %18, align 8
  %43 = load ptr, ptr %12, align 8
  %44 = load ptr, ptr %13, align 8
  %45 = load ptr, ptr %14, align 8
  %46 = load ptr, ptr %15, align 8
  %47 = load i8, ptr %16, align 1, !range !6, !noundef !7
  %48 = trunc i8 %47 to i1
  call void @decode_UCO_Time_st(ptr noundef %40, ptr noundef %41, ptr noundef %42, ptr noundef %43, ptr noundef %44, ptr noundef %45, ptr noundef %46, i1 noundef zeroext %48)
  call void @llvm.lifetime.end.p0(i64 8, ptr %18) #6
  call void @llvm.lifetime.end.p0(i64 4, ptr %17) #6
  ret void
}

; Function Attrs: null_pointer_is_valid sspstrong uwtable
define internal void @decode_GIAS_LifeEvent_un(ptr noundef %0, ptr noundef %1, ptr noundef %2, ptr noundef %3, ptr noundef %4, ptr noundef %5, i1 noundef zeroext %6) #0 {
  %8 = alloca ptr, align 8
  %9 = alloca ptr, align 8
  %10 = alloca ptr, align 8
  %11 = alloca ptr, align 8
  %12 = alloca ptr, align 8
  %13 = alloca ptr, align 8
  %14 = alloca i8, align 1
  %15 = alloca ptr, align 8
  %16 = alloca i32, align 4
  %17 = alloca i32, align 4
  %18 = alloca ptr, align 8
  %19 = alloca i32, align 4
  %20 = alloca ptr, align 8
  %21 = alloca ptr, align 8
  store ptr %0, ptr %8, align 8
  store ptr %1, ptr %9, align 8
  store ptr %2, ptr %10, align 8
  store ptr %3, ptr %11, align 8
  store ptr %4, ptr %12, align 8
  store ptr %5, ptr %13, align 8
  %22 = zext i1 %6 to i8
  store i8 %22, ptr %14, align 1
  call void @llvm.lifetime.start.p0(i64 8, ptr %15) #6
  store ptr null, ptr %15, align 8
  call void @llvm.lifetime.start.p0(i64 4, ptr %16) #6
  call void @llvm.lifetime.start.p0(i64 4, ptr %17) #6
  %23 = load ptr, ptr %8, align 8
  %24 = load ptr, ptr %11, align 8
  %25 = load i8, ptr %14, align 1, !range !6, !noundef !7
  %26 = trunc i8 %25 to i1
  %27 = load i32, ptr @boundary, align 4
  %28 = call i32 @get_CDR_enum(ptr noundef %23, ptr noundef %24, i1 noundef zeroext %26, i32 noundef %27)
  store i32 %28, ptr %16, align 4
  %29 = load ptr, ptr %10, align 8
  %30 = load i32, ptr @hf_GIAS_LifeEvent_LifeEvent, align 4
  %31 = load ptr, ptr %8, align 8
  %32 = load ptr, ptr %11, align 8
  %33 = load i32, ptr %32, align 4
  %34 = sub i32 %33, 4
  %35 = load i32, ptr %16, align 4
  %36 = call ptr @proto_tree_add_uint(ptr noundef %29, i32 noundef %30, ptr noundef %31, i32 noundef %34, i32 noundef 4, i32 noundef %35)
  %37 = load i32, ptr %16, align 4
  store i32 %37, ptr %17, align 4
  %38 = load i32, ptr %17, align 4
  %39 = icmp eq i32 %38, 0
  br i1 %39, label %40, label %56

40:                                               ; preds = %7
  call void @llvm.lifetime.start.p0(i64 8, ptr %18) #6
  %41 = load ptr, ptr %10, align 8
  %42 = load ptr, ptr %8, align 8
  %43 = load ptr, ptr %11, align 8
  %44 = load i32, ptr %43, align 4
  %45 = load i32, ptr @ett_giop_struct, align 4
  %46 = call ptr @proto_tree_add_subtree(ptr noundef %41, ptr noundef %42, i32 noundef %44, i32 noundef -1, i32 noundef %45, ptr noundef null, ptr noundef @.str.840)
  store ptr %46, ptr %18, align 8
  %47 = load ptr, ptr %8, align 8
  %48 = load ptr, ptr %9, align 8
  %49 = load ptr, ptr %18, align 8
  %50 = load ptr, ptr %15, align 8
  %51 = load ptr, ptr %11, align 8
  %52 = load ptr, ptr %12, align 8
  %53 = load ptr, ptr %13, align 8
  %54 = load i8, ptr %14, align 1, !range !6, !noundef !7
  %55 = trunc i8 %54 to i1
  call void @decode_UCO_AbsTime_st(ptr noundef %47, ptr noundef %48, ptr noundef %49, ptr noundef %50, ptr noundef %51, ptr noundef %52, ptr noundef %53, i1 noundef zeroext %55)
  call void @llvm.lifetime.end.p0(i64 8, ptr %18) #6
  store i32 1, ptr %19, align 4
  br label %106

56:                                               ; preds = %7
  %57 = load i32, ptr %17, align 4
  %58 = icmp eq i32 %57, 1
  br i1 %58, label %59, label %75

59:                                               ; preds = %56
  call void @llvm.lifetime.start.p0(i64 8, ptr %20) #6
  %60 = load ptr, ptr %10, align 8
  %61 = load ptr, ptr %8, align 8
  %62 = load ptr, ptr %11, align 8
  %63 = load i32, ptr %62, align 4
  %64 = load i32, ptr @ett_giop_struct, align 4
  %65 = call ptr @proto_tree_add_subtree(ptr noundef %60, ptr noundef %61, i32 noundef %63, i32 noundef -1, i32 noundef %64, ptr noundef null, ptr noundef @.str.872)
  store ptr %65, ptr %20, align 8
  %66 = load ptr, ptr %8, align 8
  %67 = load ptr, ptr %9, align 8
  %68 = load ptr, ptr %20, align 8
  %69 = load ptr, ptr %15, align 8
  %70 = load ptr, ptr %11, align 8
  %71 = load ptr, ptr %12, align 8
  %72 = load ptr, ptr %13, align 8
  %73 = load i8, ptr %14, align 1, !range !6, !noundef !7
  %74 = trunc i8 %73 to i1
  call void @decode_GIAS_DayEventTime_st(ptr noundef %66, ptr noundef %67, ptr noundef %68, ptr noundef %69, ptr noundef %70, ptr noundef %71, ptr noundef %72, i1 noundef zeroext %74)
  call void @llvm.lifetime.end.p0(i64 8, ptr %20) #6
  store i32 1, ptr %19, align 4
  br label %106

75:                                               ; preds = %56
  %76 = load i32, ptr %17, align 4
  %77 = icmp eq i32 %76, 2
  br i1 %77, label %78, label %86

78:                                               ; preds = %75
  %79 = load ptr, ptr %10, align 8
  %80 = load ptr, ptr %8, align 8
  %81 = load ptr, ptr %11, align 8
  %82 = load i8, ptr %14, align 1, !range !6, !noundef !7
  %83 = trunc i8 %82 to i1
  %84 = load i32, ptr @boundary, align 4
  %85 = load i32, ptr @hf_GIAS_LifeEvent_ev, align 4
  call void @giop_add_CDR_string(ptr noundef %79, ptr noundef %80, ptr noundef %81, i1 noundef zeroext %83, i32 noundef %84, i32 noundef %85)
  store i32 1, ptr %19, align 4
  br label %106

86:                                               ; preds = %75
  %87 = load i32, ptr %17, align 4
  %88 = icmp eq i32 %87, 3
  br i1 %88, label %89, label %105

89:                                               ; preds = %86
  call void @llvm.lifetime.start.p0(i64 8, ptr %21) #6
  %90 = load ptr, ptr %10, align 8
  %91 = load ptr, ptr %8, align 8
  %92 = load ptr, ptr %11, align 8
  %93 = load i32, ptr %92, align 4
  %94 = load i32, ptr @ett_giop_struct, align 4
  %95 = call ptr @proto_tree_add_subtree(ptr noundef %90, ptr noundef %91, i32 noundef %93, i32 noundef -1, i32 noundef %94, ptr noundef null, ptr noundef @.str.842)
  store ptr %95, ptr %21, align 8
  %96 = load ptr, ptr %8, align 8
  %97 = load ptr, ptr %9, align 8
  %98 = load ptr, ptr %21, align 8
  %99 = load ptr, ptr %15, align 8
  %100 = load ptr, ptr %11, align 8
  %101 = load ptr, ptr %12, align 8
  %102 = load ptr, ptr %13, align 8
  %103 = load i8, ptr %14, align 1, !range !6, !noundef !7
  %104 = trunc i8 %103 to i1
  call void @decode_UCO_Time_st(ptr noundef %96, ptr noundef %97, ptr noundef %98, ptr noundef %99, ptr noundef %100, ptr noundef %101, ptr noundef %102, i1 noundef zeroext %104)
  call void @llvm.lifetime.end.p0(i64 8, ptr %21) #6
  store i32 1, ptr %19, align 4
  br label %106

105:                                              ; preds = %86
  store i32 0, ptr %19, align 4
  br label %106

106:                                              ; preds = %105, %89, %78, %59, %40
  call void @llvm.lifetime.end.p0(i64 4, ptr %17) #6
  call void @llvm.lifetime.end.p0(i64 4, ptr %16) #6
  call void @llvm.lifetime.end.p0(i64 8, ptr %15) #6
  %107 = load i32, ptr %19, align 4
  switch i32 %107, label %109 [
    i32 0, label %108
    i32 1, label %108
  ]

108:                                              ; preds = %106, %106
  ret void

109:                                              ; preds = %106
  unreachable
}