; Function Attrs: null_pointer_is_valid sspstrong uwtable
define internal fastcc void @decode_GIAS_LifeEvent_un(ptr noundef %0, ptr noundef %1, ptr noundef %2, i1 noundef zeroext %3) unnamed_addr #0 {
  %5 = tail call i32 @get_CDR_enum(ptr noundef %0, ptr noundef %2, i1 noundef zeroext %3, i32 noundef 12)
  %6 = load i32, ptr @hf_GIAS_LifeEvent_LifeEvent, align 4
  %7 = load i32, ptr %2, align 4
  %8 = add i32 %7, -4
  %9 = tail call ptr @proto_tree_add_uint(ptr noundef %1, i32 noundef %6, ptr noundef %0, i32 noundef %8, i32 noundef 4, i32 noundef %5)
  switch i32 %5, label %66 [
    i32 0, label %10
    i32 1, label %14
    i32 2, label %43
    i32 3, label %45
  ]

10:                                               ; preds = %4
  %11 = load i32, ptr %2, align 4
  %12 = load i32, ptr @ett_giop_struct, align 4
  %13 = tail call ptr @proto_tree_add_subtree(ptr noundef %1, ptr noundef %0, i32 noundef %11, i32 noundef -1, i32 noundef %12, ptr noundef null, ptr noundef nonnull @.str.840)
  tail call fastcc void @decode_UCO_AbsTime_st(ptr noundef %0, ptr noundef %13, ptr noundef %2, i1 noundef zeroext %3)
  br label %66

14:                                               ; preds = %4
  %15 = load i32, ptr %2, align 4
  %16 = load i32, ptr @ett_giop_struct, align 4
  %17 = tail call ptr @proto_tree_add_subtree(ptr noundef %1, ptr noundef %0, i32 noundef %15, i32 noundef -1, i32 noundef %16, ptr noundef null, ptr noundef nonnull @.str.872)
  %18 = tail call i32 @get_CDR_enum(ptr noundef %0, ptr noundef %2, i1 noundef zeroext %3, i32 noundef 12)
  %19 = load i32, ptr @hf_GIAS_DayEventTime_day_event, align 4
  %20 = load i32, ptr %2, align 4
  %21 = add i32 %20, -4
  %22 = tail call ptr @proto_tree_add_uint(ptr noundef %17, i32 noundef %19, ptr noundef %0, i32 noundef %21, i32 noundef 4, i32 noundef %18)
  %23 = load i32, ptr %2, align 4
  %24 = load i32, ptr @ett_giop_struct, align 4
  %25 = tail call ptr @proto_tree_add_subtree(ptr noundef %17, ptr noundef %0, i32 noundef %23, i32 noundef -1, i32 noundef %24, ptr noundef null, ptr noundef nonnull @.str.842)
  %26 = load i32, ptr @hf_UCO_Time_hour, align 4
  %27 = load i32, ptr %2, align 4
  %28 = add i32 %27, -2
  %29 = tail call zeroext i16 @get_CDR_ushort(ptr noundef %0, ptr noundef %2, i1 noundef zeroext %3, i32 noundef 12)
  %30 = zext i16 %29 to i32
  %31 = tail call ptr @proto_tree_add_uint(ptr noundef %25, i32 noundef %26, ptr noundef %0, i32 noundef %28, i32 noundef 2, i32 noundef %30)
  %32 = load i32, ptr @hf_UCO_Time_minute, align 4
  %33 = load i32, ptr %2, align 4
  %34 = add i32 %33, -2
  %35 = tail call zeroext i16 @get_CDR_ushort(ptr noundef %0, ptr noundef %2, i1 noundef zeroext %3, i32 noundef 12)
  %36 = zext i16 %35 to i32
  %37 = tail call ptr @proto_tree_add_uint(ptr noundef %25, i32 noundef %32, ptr noundef %0, i32 noundef %34, i32 noundef 2, i32 noundef %36)
  %38 = load i32, ptr @hf_UCO_Time_second, align 4
  %39 = load i32, ptr %2, align 4
  %40 = add i32 %39, -4
  %41 = tail call float @get_CDR_float(ptr noundef %0, ptr noundef %2, i1 noundef zeroext %3, i32 noundef 12)
  %42 = tail call ptr @proto_tree_add_float(ptr noundef %25, i32 noundef %38, ptr noundef %0, i32 noundef %40, i32 noundef 4, float noundef %41)
  br label %66

43:                                               ; preds = %4
  %44 = load i32, ptr @hf_GIAS_LifeEvent_ev, align 4
  tail call void @giop_add_CDR_string(ptr noundef %1, ptr noundef %0, ptr noundef %2, i1 noundef zeroext %3, i32 noundef 12, i32 noundef %44)
  br label %66

45:                                               ; preds = %4
  %46 = load i32, ptr %2, align 4
  %47 = load i32, ptr @ett_giop_struct, align 4
  %48 = tail call ptr @proto_tree_add_subtree(ptr noundef %1, ptr noundef %0, i32 noundef %46, i32 noundef -1, i32 noundef %47, ptr noundef null, ptr noundef nonnull @.str.842)
  %49 = load i32, ptr @hf_UCO_Time_hour, align 4
  %50 = load i32, ptr %2, align 4
  %51 = add i32 %50, -2
  %52 = tail call zeroext i16 @get_CDR_ushort(ptr noundef %0, ptr noundef %2, i1 noundef zeroext %3, i32 noundef 12)
  %53 = zext i16 %52 to i32
  %54 = tail call ptr @proto_tree_add_uint(ptr noundef %48, i32 noundef %49, ptr noundef %0, i32 noundef %51, i32 noundef 2, i32 noundef %53)
  %55 = load i32, ptr @hf_UCO_Time_minute, align 4
  %56 = load i32, ptr %2, align 4
  %57 = add i32 %56, -2
  %58 = tail call zeroext i16 @get_CDR_ushort(ptr noundef %0, ptr noundef %2, i1 noundef zeroext %3, i32 noundef 12)
  %59 = zext i16 %58 to i32
  %60 = tail call ptr @proto_tree_add_uint(ptr noundef %48, i32 noundef %55, ptr noundef %0, i32 noundef %57, i32 noundef 2, i32 noundef %59)
  %61 = load i32, ptr @hf_UCO_Time_second, align 4
  %62 = load i32, ptr %2, align 4
  %63 = add i32 %62, -4
  %64 = tail call float @get_CDR_float(ptr noundef %0, ptr noundef %2, i1 noundef zeroext %3, i32 noundef 12)
  %65 = tail call ptr @proto_tree_add_float(ptr noundef %48, i32 noundef %61, ptr noundef %0, i32 noundef %63, i32 noundef 4, float noundef %64)
  br label %66

66:                                               ; preds = %4, %45, %43, %14, %10
  ret void
}